target datalayout = "e-m:e-p270:32:32-p271:32:32-p272:64:64-i64:64-i128:128-f80:128-n8:16:32:64-S128"
target triple = "x86_64-pc-linux-gnu"

@.str = private unnamed_addr constant [58 x i8] c"ACD i-sets with %d variables and column multiplicity %d:\0A\00", align 1
@stdout = external global ptr, align 8
@.str.1 = private unnamed_addr constant [2 x i8] c"\0A\00", align 1
@.str.2 = private unnamed_addr constant [19 x i8] c"%d : %2d %2d  %2d\0A\00", align 1
@.str.3 = private unnamed_addr constant [11 x i8] c"Not found\0A\00", align 1

; Function Attrs: inlinehint nounwind uwtable
define internal i32 @Abc_Base2Log(i32 noundef %0) #3 {
  %2 = alloca i32, align 4
  %3 = alloca i32, align 4
  %4 = alloca i32, align 4
  %5 = alloca i32, align 4
  store i32 %0, ptr %3, align 4, !tbaa !8
  call void @llvm.lifetime.start.p0(i64 4, ptr %4) #12
  %6 = load i32, ptr %3, align 4, !tbaa !8
  %7 = icmp ult i32 %6, 2
  br i1 %7, label %8, label %10

8:                                                ; preds = %1
  %9 = load i32, ptr %3, align 4, !tbaa !8
  store i32 %9, ptr %2, align 4
  store i32 1, ptr %5, align 4
  br label %24

10:                                               ; preds = %1
  store i32 0, ptr %4, align 4, !tbaa !8
  %11 = load i32, ptr %3, align 4, !tbaa !8
  %12 = add i32 %11, -1
  store i32 %12, ptr %3, align 4, !tbaa !8
  br label %13

13:                                               ; preds = %17, %10
  %14 = load i32, ptr %3, align 4, !tbaa !8
  %15 = icmp ne i32 %14, 0
  br i1 %15, label %16, label %22

16:                                               ; preds = %13
  br label %17

17:                                               ; preds = %16
  %18 = load i32, ptr %3, align 4, !tbaa !8
  %19 = lshr i32 %18, 1
  store i32 %19, ptr %3, align 4, !tbaa !8
  %20 = load i32, ptr %4, align 4, !tbaa !8
  %21 = add nsw i32 %20, 1
  store i32 %21, ptr %4, align 4, !tbaa !8
  br label %13, !llvm.loop !68

22:                                               ; preds = %13
  %23 = load i32, ptr %4, align 4, !tbaa !8
  store i32 %23, ptr %2, align 4
  store i32 1, ptr %5, align 4
  br label %24

24:                                               ; preds = %22, %8
  call void @llvm.lifetime.end.p0(i64 4, ptr %4) #12
  %25 = load i32, ptr %2, align 4
  ret i32 %25
}

; Function Attrs: nounwind uwtable
define void @Abc_TtPrintPat(ptr noundef %0, i32 noundef %1, i32 noundef %2) #0 {
  %4 = alloca ptr, align 8
  %5 = alloca i32, align 4
  %6 = alloca i32, align 4
  %7 = alloca i32, align 4
  store ptr %0, ptr %4, align 8, !tbaa !3
  store i32 %1, ptr %5, align 4, !tbaa !8
  store i32 %2, ptr %6, align 4, !tbaa !8
  %8 = load i32, ptr %5, align 4, !tbaa !8
  %9 = load i32, ptr %6, align 4, !tbaa !8
  %10 = call i32 (ptr, ...) @printf(ptr noundef @.str, i32 noundef %8, i32 noundef %9)
  call void @llvm.lifetime.start.p0(i64 4, ptr %7) #12
  store i32 0, ptr %7, align 4, !tbaa !8
  br label %11

11:                                               ; preds = %25, %3
  %12 = load i32, ptr %7, align 4, !tbaa !8
  %13 = load i32, ptr %6, align 4, !tbaa !8
  %14 = icmp slt i32 %12, %13
  br i1 %14, label %16, label %15

15:                                               ; preds = %11
  call void @llvm.lifetime.end.p0(i64 4, ptr %7) #12
  br label %28

16:                                               ; preds = %11
  %17 = load ptr, ptr @stdout, align 8, !tbaa !62
  %18 = load ptr, ptr %4, align 8, !tbaa !3
  %19 = load i32, ptr %7, align 4, !tbaa !8
  %20 = sext i32 %19 to i64
  %21 = getelementptr inbounds i64, ptr %18, i64 %20
  %22 = load i32, ptr %5, align 4, !tbaa !8
  %23 = shl i32 1, %22
  call void @Extra_PrintBinary(ptr noundef %17, ptr noundef %21, i32 noundef %23)
  %24 = call i32 (ptr, ...) @printf(ptr noundef @.str.1)
  br label %25

25:                                               ; preds = %16
  %26 = load i32, ptr %7, align 4, !tbaa !8
  %27 = add nsw i32 %26, 1
  store i32 %27, ptr %7, align 4, !tbaa !8
  br label %11, !llvm.loop !64

28:                                               ; preds = %15
  ret void
}

; Function Attrs: nounwind uwtable
define i32 @Abc_TtCheck1Shared(ptr noundef %0, i32 noundef %1, i32 noundef %2, i32 noundef %3) #0 {
  %5 = alloca i32, align 4
  %6 = alloca ptr, align 8
  %7 = alloca i32, align 4
  %8 = alloca i32, align 4
  %9 = alloca i32, align 4
  %10 = alloca i32, align 4
  %11 = alloca i32, align 4
  %12 = alloca i32, align 4
  %13 = alloca i32, align 4
  %14 = alloca i32, align 4
  %15 = alloca i32, align 4
  %16 = alloca i32, align 4
  %17 = alloca [2 x i32], align 4
  store ptr %0, ptr %6, align 8, !tbaa !3
  store i32 %1, ptr %7, align 4, !tbaa !8
  store i32 %2, ptr %8, align 4, !tbaa !8
  store i32 %3, ptr %9, align 4, !tbaa !8
  call void @llvm.lifetime.start.p0(i64 4, ptr %10) #12
  store i32 0, ptr %10, align 4, !tbaa !8
  %18 = load i32, ptr %10, align 4, !tbaa !8
  %19 = icmp ne i32 %18, 0
  br i1 %19, label %20, label %26

20:                                               ; preds = %4
  %21 = load ptr, ptr %6, align 8, !tbaa !3
  %22 = load i32, ptr %7, align 4, !tbaa !8
  %23 = load i32, ptr %8, align 4, !tbaa !8
  %24 = sub nsw i32 %22, %23
  %25 = load i32, ptr %9, align 4, !tbaa !8
  call void @Abc_TtPrintPat(ptr noundef %21, i32 noundef %24, i32 noundef %25)
  br label %26

26:                                               ; preds = %20, %4
  call void @llvm.lifetime.start.p0(i64 4, ptr %11) #12
  %27 = load i32, ptr %9, align 4, !tbaa !8
  %28 = call i32 @Abc_Base2Log(i32 noundef %27)
  store i32 %28, ptr %11, align 4, !tbaa !8
  call void @llvm.lifetime.start.p0(i64 4, ptr %12) #12
  %29 = load i32, ptr %11, align 4, !tbaa !8
  %30 = sub nsw i32 %29, 1
  %31 = shl i32 1, %30
  store i32 %31, ptr %12, align 4, !tbaa !8
  call void @llvm.lifetime.start.p0(i64 4, ptr %13) #12
  store i32 0, ptr %13, align 4, !tbaa !8
  br label %32

32:                                               ; preds = %106, %26
  %33 = load i32, ptr %13, align 4, !tbaa !8
  %34 = load i32, ptr %7, align 4, !tbaa !8
  %35 = load i32, ptr %8, align 4, !tbaa !8
  %36 = sub nsw i32 %34, %35
  %37 = icmp slt i32 %33, %36
  br i1 %37, label %39, label %38

38:                                               ; preds = %32
  store i32 2, ptr %14, align 4
  br label %109

39:                                               ; preds = %32
  call void @llvm.lifetime.start.p0(i64 4, ptr %15) #12
  call void @llvm.lifetime.start.p0(i64 4, ptr %16) #12
  call void @llvm.lifetime.start.p0(i64 8, ptr %17) #12
  call void @llvm.memset.p0.i64(ptr align 4 %17, i8 0, i64 8, i1 false)
  store i32 0, ptr %16, align 4, !tbaa !8
  br label %40

40:                                               ; preds = %82, %39
  %41 = load i32, ptr %16, align 4, !tbaa !8
  %42 = icmp slt i32 %41, 2
  br i1 %42, label %43, label %85

43:                                               ; preds = %40
  store i32 0, ptr %15, align 4, !tbaa !8
  br label %44

44:                                               ; preds = %73, %43
  %45 = load i32, ptr %15, align 4, !tbaa !8
  %46 = load i32, ptr %9, align 4, !tbaa !8
  %47 = icmp slt i32 %45, %46
  br i1 %47, label %48, label %76

48:                                               ; preds = %44
  %49 = load i32, ptr %16, align 4, !tbaa !8
  %50 = sext i32 %49 to i64
  %51 = getelementptr inbounds [2 x [6 x i64]], ptr @s_Truth26, i64 0, i64 %50
  %52 = load i32, ptr %13, align 4, !tbaa !8
  %53 = sext i32 %52 to i64
  %54 = getelementptr inbounds [6 x i64], ptr %51, i64 0, i64 %53
  %55 = load i64, ptr %54, align 8, !tbaa !13
  %56 = load ptr, ptr %6, align 8, !tbaa !3
  %57 = load i32, ptr %15, align 4, !tbaa !8
  %58 = sext i32 %57 to i64
  %59 = getelementptr inbounds i64, ptr %56, i64 %58
  %60 = load i64, ptr %59, align 8, !tbaa !13
  %61 = and i64 %55, %60
  %62 = icmp ne i64 %61, 0
  %63 = zext i1 %62 to i32
  %64 = load i32, ptr %16, align 4, !tbaa !8
  %65 = sext i32 %64 to i64
  %66 = getelementptr inbounds [2 x i32], ptr %17, i64 0, i64 %65
  %67 = load i32, ptr %66, align 4, !tbaa !8
  %68 = add nsw i32 %67, %63
  store i32 %68, ptr %66, align 4, !tbaa !8
  %69 = load i32, ptr %12, align 4, !tbaa !8
  %70 = icmp sgt i32 %68, %69
  br i1 %70, label %71, label %72

71:                                               ; preds = %48
  br label %76

72:                                               ; preds = %48
  br label %73

73:                                               ; preds = %72
  %74 = load i32, ptr %15, align 4, !tbaa !8
  %75 = add nsw i32 %74, 1
  store i32 %75, ptr %15, align 4, !tbaa !8
  br label %44, !llvm.loop !65

76:                                               ; preds = %71, %44
  %77 = load i32, ptr %15, align 4, !tbaa !8
  %78 = load i32, ptr %9, align 4, !tbaa !8
  %79 = icmp slt i32 %77, %78
  br i1 %79, label %80, label %81

80:                                               ; preds = %76
  br label %85

81:                                               ; preds = %76
  br label %82

82:                                               ; preds = %81
  %83 = load i32, ptr %16, align 4, !tbaa !8
  %84 = add nsw i32 %83, 1
  store i32 %84, ptr %16, align 4, !tbaa !8
  br label %40, !llvm.loop !66

85:                                               ; preds = %80, %40
  %86 = load i32, ptr %10, align 4, !tbaa !8
  %87 = icmp ne i32 %86, 0
  br i1 %87, label %88, label %96

88:                                               ; preds = %85
  %89 = load i32, ptr %13, align 4, !tbaa !8
  %90 = getelementptr inbounds [2 x i32], ptr %17, i64 0, i64 0
  %91 = load i32, ptr %90, align 4, !tbaa !8
  %92 = getelementptr inbounds [2 x i32], ptr %17, i64 0, i64 1
  %93 = load i32, ptr %92, align 4, !tbaa !8
  %94 = load i32, ptr %12, align 4, !tbaa !8
  %95 = call i32 (ptr, ...) @printf(ptr noundef @.str.2, i32 noundef %89, i32 noundef %91, i32 noundef %93, i32 noundef %94)
  br label %96

96:                                               ; preds = %88, %85
  %97 = load i32, ptr %16, align 4, !tbaa !8
  %98 = icmp eq i32 %97, 2
  br i1 %98, label %99, label %102

99:                                               ; preds = %96
  %100 = load i32, ptr %11, align 4, !tbaa !8
  %101 = sub nsw i32 %100, 1
  store i32 %101, ptr %5, align 4
  store i32 1, ptr %14, align 4
  br label %103

102:                                              ; preds = %96
  store i32 0, ptr %14, align 4
  br label %103

103:                                              ; preds = %102, %99
  call void @llvm.lifetime.end.p0(i64 8, ptr %17) #12
  call void @llvm.lifetime.end.p0(i64 4, ptr %16) #12
  call void @llvm.lifetime.end.p0(i64 4, ptr %15) #12
  %104 = load i32, ptr %14, align 4
  switch i32 %104, label %109 [
    i32 0, label %105
  ]

105:                                              ; preds = %103
  br label %106

106:                                              ; preds = %105
  %107 = load i32, ptr %13, align 4, !tbaa !8
  %108 = add nsw i32 %107, 1
  store i32 %108, ptr %13, align 4, !tbaa !8
  br label %32, !llvm.loop !67

109:                                              ; preds = %103, %38
  call void @llvm.lifetime.end.p0(i64 4, ptr %13) #12
  %110 = load i32, ptr %14, align 4
  switch i32 %110, label %118 [
    i32 2, label %111
  ]

111:                                              ; preds = %109
  %112 = load i32, ptr %10, align 4, !tbaa !8
  %113 = icmp ne i32 %112, 0
  br i1 %113, label %114, label %116

114:                                              ; preds = %111
  %115 = call i32 (ptr, ...) @printf(ptr noundef @.str.3)
  br label %116

116:                                              ; preds = %114, %111
  %117 = load i32, ptr %11, align 4, !tbaa !8
  store i32 %117, ptr %5, align 4
  store i32 1, ptr %14, align 4
  br label %118

118:                                              ; preds = %116, %109
  call void @llvm.lifetime.end.p0(i64 4, ptr %12) #12
  call void @llvm.lifetime.end.p0(i64 4, ptr %11) #12
  call void @llvm.lifetime.end.p0(i64 4, ptr %10) #12
  %119 = load i32, ptr %5, align 4
  ret i32 %119
}