; Function Attrs: nofree norecurse nosync nounwind memory(argmem: read) uwtable
define i32 @Abc_TtCheck1Shared(ptr noundef readonly captures(none) %0, i32 noundef %1, i32 noundef %2, i32 noundef %3) local_unnamed_addr #0 {
  %.sroa.0 = alloca i32, align 8
  %.sroa.6 = alloca i32, align 4
  %5 = icmp ult i32 %3, 2
  %6 = add i32 %3, -1
  %7 = tail call range(i32 0, 33) i32 @llvm.ctlz.i32(i32 %6, i1 true)
  %8 = sub nuw nsw i32 32, %7
  %.09.i = select i1 %5, i32 %3, i32 %8
  %9 = add nsw i32 %.09.i, -1
  %10 = shl nuw i32 1, %9
  %11 = sub nsw i32 %1, %2
  %.not3950 = icmp sgt i32 %11, 0
  br i1 %.not3950, label %.lr.ph, label %._crit_edge

.lr.ph:                                           ; preds = %4
  %12 = icmp sgt i32 %3, 0
  br i1 %12, label %.split.us.us.preheader, label %._crit_edge.loopexit56

.split.us.us.preheader:                           ; preds = %.lr.ph
  %wide.trip.count71 = zext nneg i32 %11 to i64
  %wide.trip.count = zext nneg i32 %3 to i64
  br label %.split.us.us

.split.us.us:                                     ; preds = %.split.us.us.preheader, %.loopexit40.split.us.us
  %indvars.iv68 = phi i64 [ 0, %.split.us.us.preheader ], [ %indvars.iv.next69, %.loopexit40.split.us.us ]
  call void @llvm.lifetime.start.p0(i64 4, ptr nonnull %.sroa.0)
  call void @llvm.lifetime.start.p0(i64 4, ptr nonnull %.sroa.6)
  store i32 0, ptr %.sroa.0, align 8
  store i32 0, ptr %.sroa.6, align 4
  br label %.preheader.us.us

.loopexit40.split.us.us:                          ; preds = %17
  call void @llvm.lifetime.end.p0(i64 4, ptr nonnull %.sroa.0)
  call void @llvm.lifetime.end.p0(i64 4, ptr nonnull %.sroa.6)
  %indvars.iv.next69 = add nuw nsw i64 %indvars.iv68, 1
  %exitcond72.not = icmp eq i64 %indvars.iv.next69, %wide.trip.count71
  br i1 %exitcond72.not, label %._crit_edge, label %.split.us.us, !llvm.loop !55

.preheader.us.us:                                 ; preds = %..critedge_crit_edge.us.us, %.split.us.us
  %13 = phi i1 [ false, %..critedge_crit_edge.us.us ], [ true, %.split.us.us ]
  %indvars.iv65.sroa.phi = phi ptr [ %.sroa.6, %..critedge_crit_edge.us.us ], [ %.sroa.0, %.split.us.us ]
  %indvars.iv65 = phi i64 [ 1, %..critedge_crit_edge.us.us ], [ 0, %.split.us.us ]
  %14 = getelementptr inbounds nuw [2 x [6 x i64]], ptr @s_Truth26, i64 0, i64 %indvars.iv65, i64 %indvars.iv68
  %15 = load i64, ptr %14, align 8, !tbaa !3
  %.promoted.us.us = load i32, ptr %indvars.iv65.sroa.phi, align 4, !tbaa !7
  br label %17

16:                                               ; preds = %17
  %indvars.iv.next = add nuw nsw i64 %indvars.iv, 1
  %exitcond.not = icmp eq i64 %indvars.iv.next, %wide.trip.count
  br i1 %exitcond.not, label %..critedge_crit_edge.us.us, label %17, !llvm.loop !56

17:                                               ; preds = %16, %.preheader.us.us
  %indvars.iv = phi i64 [ %indvars.iv.next, %16 ], [ 0, %.preheader.us.us ]
  %18 = phi i32 [ %24, %16 ], [ %.promoted.us.us, %.preheader.us.us ]
  %19 = getelementptr inbounds nuw i64, ptr %0, i64 %indvars.iv
  %20 = load i64, ptr %19, align 8, !tbaa !3
  %21 = and i64 %20, %15
  %22 = icmp ne i64 %21, 0
  %23 = zext i1 %22 to i32
  %24 = add nsw i32 %18, %23
  %25 = icmp sgt i32 %24, %10
  br i1 %25, label %.loopexit40.split.us.us, label %16

..critedge_crit_edge.us.us:                       ; preds = %16
  store i32 %24, ptr %indvars.iv65.sroa.phi, align 4, !tbaa !7
  br i1 %13, label %.preheader.us.us, label %._crit_edge.sink.split, !llvm.loop !57

._crit_edge.loopexit56:                           ; preds = %.lr.ph
  call void @llvm.lifetime.start.p0(i64 4, ptr nonnull %.sroa.0)
  call void @llvm.lifetime.start.p0(i64 4, ptr nonnull %.sroa.6)
  br label %._crit_edge.sink.split

._crit_edge.sink.split:                           ; preds = %..critedge_crit_edge.us.us, %._crit_edge.loopexit56
  call void @llvm.lifetime.end.p0(i64 4, ptr nonnull %.sroa.0)
  call void @llvm.lifetime.end.p0(i64 4, ptr nonnull %.sroa.6)
  br label %._crit_edge

._crit_edge:                                      ; preds = %.loopexit40.split.us.us, %._crit_edge.sink.split, %4
  %.3 = phi i32 [ %.09.i, %4 ], [ %9, %._crit_edge.sink.split ], [ %.09.i, %.loopexit40.split.us.us ]
  ret i32 %.3
}